; Function Attrs: nounwind uwtable
define ptr @l_StateCpsT_instMonad___lambda__9(ptr readnone captures(none) %0, ptr readnone captures(none) %1, ptr noundef %2, ptr noundef %3, ptr readnone captures(none) %4, ptr noundef %5, ptr noundef %6) #0 {
  tail call void @lean_inc_heartbeat() #4
  %8 = tail call noalias ptr @mi_malloc_small(i64 noundef 40) #4
  %9 = icmp eq ptr %8, null
  br i1 %9, label %10, label %lean_alloc_closure.exit

10:                                               ; preds = %7
  tail call void @lean_internal_panic_out_of_memory() #5
  unreachable

lean_alloc_closure.exit:                          ; preds = %7
  %11 = getelementptr inbounds nuw i8, ptr %8, i64 4
  store i32 1, ptr %8, align 4, !tbaa !4
  store i32 -184549336, ptr %11, align 4
  %12 = getelementptr inbounds nuw i8, ptr %8, i64 8
  store ptr @l_StateCpsT_instMonad___lambda__8, ptr %12, align 8, !tbaa !9
  %13 = getelementptr inbounds nuw i8, ptr %8, i64 16
  store i16 4, ptr %13, align 8, !tbaa !11
  %14 = getelementptr inbounds nuw i8, ptr %8, i64 18
  store i16 2, ptr %14, align 2, !tbaa !11
  %15 = getelementptr inbounds nuw i8, ptr %8, i64 24
  store ptr %6, ptr %15, align 8, !tbaa !9
  %16 = getelementptr inbounds nuw i8, ptr %8, i64 32
  store ptr %3, ptr %16, align 8, !tbaa !9
  %17 = tail call ptr @lean_apply_3(ptr noundef %2, ptr noundef nonnull inttoptr (i64 1 to ptr), ptr noundef %5, ptr noundef nonnull %8) #4
  ret ptr %17
}